; Function Attrs: mustprogress nounwind uwtable
define internal fastcc void @_ZN12_GLOBAL__N_114ODRTypeVisitor17AddIdentifierInfoEPKN5clang14IdentifierInfoE(ptr noundef nonnull readonly align 8 captures(none) dereferenceable(16) %0, ptr noundef readonly %1) unnamed_addr #0 align 2 {
  %3 = getelementptr inbounds nuw i8, ptr %0, i64 8
  %4 = load ptr, ptr %3, align 8
  %5 = icmp ne ptr %1, null
  %6 = getelementptr inbounds nuw i8, ptr %4, i64 24
  %7 = tail call noundef i64 @_ZNK4llvm15SmallVectorBaseImE4sizeEv(ptr noundef nonnull align 8 dereferenceable(24) %6) #14
  %8 = add i64 %7, 1
  %9 = tail call noundef i64 @_ZNK4llvm15SmallVectorBaseImE8capacityEv(ptr noundef nonnull align 8 dereferenceable(24) %6) #14
  %.not.i.i.i.i = icmp ugt i64 %8, %9
  br i1 %.not.i.i.i.i, label %10, label %_ZN5clang7ODRHash10AddBooleanEb.exit

10:                                               ; preds = %2
  %11 = getelementptr inbounds nuw i8, ptr %4, i64 48
  tail call void @_ZN4llvm15SmallVectorBaseImE8grow_podEPvmm(ptr noundef nonnull align 8 dereferenceable(24) %6, ptr noundef nonnull %11, i64 noundef %8, i64 noundef 1) #14
  br label %_ZN5clang7ODRHash10AddBooleanEb.exit

_ZN5clang7ODRHash10AddBooleanEb.exit:             ; preds = %2, %10
  %12 = zext i1 %5 to i8
  %13 = load ptr, ptr %6, align 8
  %14 = tail call noundef i64 @_ZNK4llvm15SmallVectorBaseImE4sizeEv(ptr noundef nonnull align 8 dereferenceable(24) %6) #14
  %15 = getelementptr inbounds i8, ptr %13, i64 %14
  store i8 %12, ptr %15, align 1
  %16 = tail call noundef i64 @_ZNK4llvm15SmallVectorBaseImE4sizeEv(ptr noundef nonnull align 8 dereferenceable(24) %6) #14
  %17 = add i64 %16, 1
  tail call void @_ZN4llvm15SmallVectorBaseImE8set_sizeEm(ptr noundef nonnull align 8 dereferenceable(24) %6, i64 noundef %17) #14
  br i1 %5, label %18, label %26

18:                                               ; preds = %_ZN5clang7ODRHash10AddBooleanEb.exit
  %19 = load ptr, ptr %3, align 8
  %20 = getelementptr inbounds nuw i8, ptr %19, i64 176
  %21 = getelementptr inbounds nuw i8, ptr %1, i64 16
  %22 = load ptr, ptr %21, align 8
  %23 = getelementptr inbounds nuw i8, ptr %22, i64 16
  %24 = load i64, ptr %22, align 8
  %25 = and i64 %24, 4294967295
  tail call void @_ZN4llvm16FoldingSetNodeID9AddStringENS_9StringRefE(ptr noundef nonnull align 8 dereferenceable(144) %20, ptr nonnull %23, i64 %25) #14
  br label %26

26:                                               ; preds = %18, %_ZN5clang7ODRHash10AddBooleanEb.exit
  ret void
}